target datalayout = "e-m:e-p270:32:32-p271:32:32-p272:64:64-i64:64-i128:128-f80:128-n8:16:32:64-S128"
target triple = "x86_64-pc-linux-gnu"

%class.OopHandle = type { ptr }
%class.MemoryPool = type <{ ptr, ptr, i32, [4 x i8], i64, i64, i8, [7 x i8], [5 x ptr], i32, [4 x i8], %class.MemoryUsage, %class.MemoryUsage, ptr, ptr, ptr, ptr, %class.OopHandle, i8, [7 x i8] }>
%class.MemoryUsage = type { i64, i64, i64, i64 }

; Function Attrs: mustprogress nounwind uwtable
define hidden void @_ZN10MemoryPool11add_managerEP13MemoryManager(ptr noundef nonnull align 8 dereferenceable(201) %0, ptr noundef %1) #1 align 2 {
  %3 = alloca ptr, align 8
  %4 = alloca ptr, align 8
  store ptr %0, ptr %3, align 8
  store ptr %1, ptr %4, align 8
  %5 = load ptr, ptr %3, align 8
  %6 = getelementptr inbounds %class.MemoryPool, ptr %5, i32 0, i32 9
  %7 = load i32, ptr %6, align 8
  %8 = icmp slt i32 %7, 5
  br i1 %8, label %9, label %19

9:                                                ; preds = %2
  %10 = load ptr, ptr %4, align 8
  %11 = getelementptr inbounds %class.MemoryPool, ptr %5, i32 0, i32 8
  %12 = getelementptr inbounds %class.MemoryPool, ptr %5, i32 0, i32 9
  %13 = load i32, ptr %12, align 8
  %14 = sext i32 %13 to i64
  %15 = getelementptr inbounds [5 x ptr], ptr %11, i64 0, i64 %14
  store ptr %10, ptr %15, align 8
  %16 = getelementptr inbounds %class.MemoryPool, ptr %5, i32 0, i32 9
  %17 = load i32, ptr %16, align 8
  %18 = add nsw i32 %17, 1
  store i32 %18, ptr %16, align 8
  br label %19

19:                                               ; preds = %9, %2
  ret void
}