; Function Attrs: mustprogress nofree norecurse nosync nounwind willreturn memory(argmem: readwrite) uwtable
define hidden void @_ZN10MemoryPool11add_managerEP13MemoryManager(ptr nocapture noundef nonnull align 8 dereferenceable(201) %0, ptr noundef %1) local_unnamed_addr #2 align 2 {
  %3 = getelementptr inbounds i8, ptr %0, i64 88
  %4 = load i32, ptr %3, align 8
  %5 = icmp slt i32 %4, 5
  br i1 %5, label %6, label %12

6:                                                ; preds = %2
  %7 = getelementptr inbounds i8, ptr %0, i64 48
  %8 = sext i32 %4 to i64
  %9 = getelementptr inbounds [5 x ptr], ptr %7, i64 0, i64 %8
  store ptr %1, ptr %9, align 8
  %10 = load i32, ptr %3, align 8
  %11 = add nsw i32 %10, 1
  store i32 %11, ptr %3, align 8
  br label %12

12:                                               ; preds = %6, %2
  ret void
}